target datalayout = "e-m:e-p270:32:32-p271:32:32-p272:64:64-i64:64-i128:128-f80:128-n8:16:32:64-S128"
target triple = "x86_64-pc-linux-gnu"

; Function Attrs: nounwind uwtable
define internal i32 @zueci_u_utf32be(i32 noundef %0, ptr noundef %1) #0 {
  %3 = alloca i32, align 4
  %4 = alloca ptr, align 8
  store i32 %0, ptr %3, align 4
  store ptr %1, ptr %4, align 8
  %5 = load ptr, ptr %4, align 8
  %6 = getelementptr inbounds i8, ptr %5, i64 0
  store i8 0, ptr %6, align 1
  %7 = load i32, ptr %3, align 4
  %8 = lshr i32 %7, 16
  %9 = trunc i32 %8 to i8
  %10 = load ptr, ptr %4, align 8
  %11 = getelementptr inbounds i8, ptr %10, i64 1
  store i8 %9, ptr %11, align 1
  %12 = load i32, ptr %3, align 4
  %13 = lshr i32 %12, 8
  %14 = trunc i32 %13 to i8
  %15 = load ptr, ptr %4, align 8
  %16 = getelementptr inbounds i8, ptr %15, i64 2
  store i8 %14, ptr %16, align 1
  %17 = load i32, ptr %3, align 4
  %18 = trunc i32 %17 to i8
  %19 = load ptr, ptr %4, align 8
  %20 = getelementptr inbounds i8, ptr %19, i64 3
  store i8 %18, ptr %20, align 1
  ret i32 4
}