; Function Attrs: mustprogress nofree norecurse nosync nounwind willreturn memory(argmem: write) uwtable
define internal noundef i32 @zueci_u_utf32be(i32 noundef %0, ptr nocapture noundef writeonly %1) #2 {
  store i8 0, ptr %1, align 1
  %3 = lshr i32 %0, 16
  %4 = trunc i32 %3 to i8
  %5 = getelementptr inbounds i8, ptr %1, i64 1
  store i8 %4, ptr %5, align 1
  %6 = lshr i32 %0, 8
  %7 = trunc i32 %6 to i8
  %8 = getelementptr inbounds i8, ptr %1, i64 2
  store i8 %7, ptr %8, align 1
  %9 = trunc i32 %0 to i8
  %10 = getelementptr inbounds i8, ptr %1, i64 3
  store i8 %9, ptr %10, align 1
  ret i32 4
}